(dp0
S'METTS MARK'
p1
(dp2
S'to_messages'
p3
I807
sS'deferral_payments'
p4
I0
sS'expenses'
p5
I94299
sS'poi'
p6
I00
sS'deferred_income'
p7
I0
sS'long_term_incentive'
p8
I0
sS'restricted_stock_deferred'
p9
I0
sS'shared_receipt_with_poi'
p10
I702
sS'loan_advances'
p11
I0
sS'from_messages'
p12
I29
sS'other'
p13
I1740
sS'director_fees'
p14
I0
sS'bonus'
p15
I600000
sS'total_stock_value'
p16
I585062
sS'from_poi_to_this_person'
p17
I38
sS'ratio_to_poi'
p18
F0.034482758620689655
sS'from_this_person_to_poi'
p19
I1
sS'restricted_stock'
p20
I585062
sS'salary'
p21
I365788
sS'total_payments'
p22
I1061827
sS'exercised_stock_options'
p23
I0
sS'ratio_from_poi'
p24
F0.04708798017348203
ssS'BAXTER JOHN C'
p25
(dp26
g3
I0
sg4
I1295738
sg5
I11200
sg6
I00
sg7
I-1386055
sg8
I1586055
sg9
I0
sg10
I0
sg11
I0
sg12
I0
sg13
I2660303
sg14
I0
sg15
I1200000
sg16
I10623258
sg17
I0
sg18
I0
sg19
I0
sg20
I3942714
sg21
I267102
sg22
I5634343
sg23
I6680544
sg24
I0
ssS'ELLIOTT STEVEN'
p27
(dp28
g3
I0
sg4
I0
sg5
I78552
sg6
I00
sg7
I-400729
sg8
I0
sg9
I0
sg10
I0
sg11
I0
sg12
I0
sg13
I12961
sg14
I0
sg15
I350000
sg16
I6678735
sg17
I0
sg18
I0
sg19
I0
sg20
I1788391
sg21
I170941
sg22
I211725
sg23
I4890344
sg24
I0
ssS'CORDES WILLIAM R'
p29
(dp30
g3
I764
sg4
I0
sg5
I0
sg6
I00
sg7
I0
sg8
I0
sg9
I0
sg10
I58
sg11
I0
sg12
I12
sg13
I0
sg14
I0
sg15
I0
sg16
I1038185
sg17
I10
sg18
F0.0
sg19
I0
sg20
I386335
sg21
I0
sg22
I0
sg23
I651850
sg24
F0.013089005235602094
ssS'HANNON KEVIN P'
p31
(dp32
g3
I1045
sg4
I0
sg5
I34039
sg6
I01
sg7
I-3117011
sg8
I1617011
sg9
I0
sg10
I1035
sg11
I0
sg12
I32
sg13
I11350
sg14
I0
sg15
I1500000
sg16
I6391065
sg17
I32
sg18
F0.65625
sg19
I21
sg20
I853064
sg21
I243293
sg22
I288682
sg23
I5538001
sg24
F0.03062200956937799
ssS'MORDAUNT KRISTINA M'
p33
(dp34
g3
I0
sg4
I0
sg5
I35018
sg6
I00
sg7
I0
sg8
I0
sg9
I0
sg10
I0
sg11
I0
sg12
I0
sg13
I1411
sg14
I0
sg15
I325000
sg16
I208510
sg17
I0
sg18
I0
sg19
I0
sg20
I208510
sg21
I267093
sg22
I628522
sg23
I0
sg24
I0
ssS'MEYER ROCKFORD G'
p35
(dp36
g3
I232
sg4
I1848227
sg5
I0
sg6
I00
sg7
I0
sg8
I0
sg9
I0
sg10
I22
sg11
I0
sg12
I28
sg13
I0
sg14
I0
sg15
I0
sg16
I955873
sg17
I0
sg18
F0.0
sg19
I0
sg20
I462384
sg21
I0
sg22
I1848227
sg23
I493489
sg24
F0.0
ssS'MCMAHON JEFFREY'
p37
(dp38
g3
I2355
sg4
I0
sg5
I137108
sg6
I00
sg7
I0
sg8
I694862
sg9
I0
sg10
I2228
sg11
I0
sg12
I48
sg13
I297353
sg14
I0
sg15
I2600000
sg16
I1662855
sg17
I58
sg18
F0.5416666666666666
sg19
I26
sg20
I558801
sg21
I370448
sg22
I4099771
sg23
I1104054
sg24
F0.024628450106157114
ssS'HORTON STANLEY C'
p39
(dp40
g3
I2350
sg4
I3131860
sg5
I0
sg6
I00
sg7
I0
sg8
I0
sg9
I0
sg10
I1074
sg11
I0
sg12
I1073
sg13
I0
sg14
I0
sg15
I0
sg16
I7256648
sg17
I44
sg18
F0.013979496738117428
sg19
I15
sg20
I2046079
sg21
I0
sg22
I3131860
sg23
I5210569
sg24
F0.01872340425531915
ssS'PIPER GREGORY F'
p41
(dp42
g3
I1238
sg4
I1130036
sg5
I43057
sg6
I00
sg7
I-33333
sg8
I0
sg9
I-409554
sg10
I742
sg11
I0
sg12
I222
sg13
I778
sg14
I0
sg15
I400000
sg16
I880290
sg17
I61
sg18
F0.21621621621621623
sg19
I48
sg20
I409554
sg21
I197091
sg22
I1737629
sg23
I880290
sg24
F0.049273021001615507
ssS'HUMPHREY GENE E'
p43
(dp44
g3
I128
sg4
I2964506
sg5
I4994
sg6
I00
sg7
I0
sg8
I0
sg9
I0
sg10
I119
sg11
I0
sg12
I17
sg13
I0
sg14
I0
sg15
I0
sg16
I2282768
sg17
I10
sg18
F1.0
sg19
I17
sg20
I0
sg21
I130724
sg22
I3100224
sg23
I2282768
sg24
F0.078125
ssS'UMANOFF ADAM S'
p45
(dp46
g3
I111
sg4
I0
sg5
I53122
sg6
I00
sg7
I0
sg8
I0
sg9
I0
sg10
I41
sg11
I0
sg12
I18
sg13
I0
sg14
I0
sg15
I788750
sg16
I0
sg17
I12
sg18
F0.0
sg19
I0
sg20
I0
sg21
I288589
sg22
I1130461
sg23
I0
sg24
F0.10810810810810811
ssS'BLACHMAN JEREMY M'
p47
(dp48
g3
I2475
sg4
I0
sg5
I84208
sg6
I00
sg7
I0
sg8
I831809
sg9
I0
sg10
I2326
sg11
I0
sg12
I14
sg13
I272
sg14
I0
sg15
I850000
sg16
I954354
sg17
I25
sg18
F0.14285714285714285
sg19
I2
sg20
I189041
sg21
I248546
sg22
I2014835
sg23
I765313
sg24
F0.010101010101010102
ssS'SUNDE MARTIN'
p49
(dp50
g3
I2647
sg4
I0
sg5
I0
sg6
I00
sg7
I0
sg8
I476451
sg9
I0
sg10
I2565
sg11
I0
sg12
I38
sg13
I111122
sg14
I0
sg15
I700000
sg16
I698920
sg17
I37
sg18
F0.34210526315789475
sg19
I13
sg20
I698920
sg21
I257486
sg22
I1545059
sg23
I0
sg24
F0.013978088401964487
ssS'GIBBS DANA R'
p51
(dp52
g3
I169
sg4
I504610
sg5
I0
sg6
I00
sg7
I0
sg8
I461912
sg9
I0
sg10
I23
sg11
I0
sg12
I12
sg13
I0
sg14
I0
sg15
I0
sg16
I2218275
sg17
I0
sg18
F0.0
sg19
I0
sg20
I0
sg21
I0
sg22
I966522
sg23
I2218275
sg24
F0.0
ssS'LOWRY CHARLES P'
p53
(dp54
g3
I0
sg4
I0
sg5
I0
sg6
I00
sg7
I0
sg8
I0
sg9
I-153686
sg10
I0
sg11
I0
sg12
I0
sg13
I0
sg14
I0
sg15
I0
sg16
I372205
sg17
I0
sg18
I0
sg19
I0
sg20
I153686
sg21
I0
sg22
I0
sg23
I372205
sg24
I0
ssS'COLWELL WESLEY'
p55
(dp56
g3
I1758
sg4
I27610
sg5
I16514
sg6
I01
sg7
I-144062
sg8
I0
sg9
I0
sg10
I1132
sg11
I0
sg12
I40
sg13
I101740
sg14
I0
sg15
I1200000
sg16
I698242
sg17
I240
sg18
F0.275
sg19
I11
sg20
I698242
sg21
I288542
sg22
I1490344
sg23
I0
sg24
F0.13651877133105803
ssS'MULLER MARK S'
p57
(dp58
g3
I136
sg4
I842924
sg5
I0
sg6
I00
sg7
I-719000
sg8
I1725545
sg9
I0
sg10
I114
sg11
I0
sg12
I16
sg13
I947
sg14
I0
sg15
I1100000
sg16
I1416848
sg17
I12
sg18
F0.0
sg19
I0
sg20
I360528
sg21
I251654
sg22
I3202070
sg23
I1056320
sg24
F0.08823529411764706
ssS'JACKSON CHARLENE R'
p59
(dp60
g3
I258
sg4
I0
sg5
I10181
sg6
I00
sg7
I0
sg8
I0
sg9
I0
sg10
I117
sg11
I0
sg12
I56
sg13
I2435
sg14
I0
sg15
I250000
sg16
I725735
sg17
I25
sg18
F0.3392857142857143
sg19
I19
sg20
I540672
sg21
I288558
sg22
I551174
sg23
I185063
sg24
F0.09689922480620156
ssS'WESTFAHL RICHARD K'
p61
(dp62
g3
I0
sg4
I0
sg5
I51870
sg6
I00
sg7
I-10800
sg8
I256191
sg9
I0
sg10
I0
sg11
I0
sg12
I0
sg13
I401130
sg14
I0
sg15
I0
sg16
I384930
sg17
I0
sg18
I0
sg19
I0
sg20
I384930
sg21
I63744
sg22
I762135
sg23
I0
sg24
I0
ssS'WALTERS GARETH W'
p63
(dp64
g3
I0
sg4
I53625
sg5
I33785
sg6
I00
sg7
I0
sg8
I0
sg9
I0
sg10
I0
sg11
I0
sg12
I0
sg13
I0
sg14
I0
sg15
I0
sg16
I1030329
sg17
I0
sg18
I0
sg19
I0
sg20
I0
sg21
I0
sg22
I87410
sg23
I1030329
sg24
I0
ssS'WALLS JR ROBERT H'
p65
(dp66
g3
I671
sg4
I0
sg5
I50936
sg6
I00
sg7
I0
sg8
I540751
sg9
I0
sg10
I215
sg11
I0
sg12
I146
sg13
I2
sg14
I0
sg15
I850000
sg16
I5898997
sg17
I17
sg18
F0.0
sg19
I0
sg20
I1552453
sg21
I357091
sg22
I1798780
sg23
I4346544
sg24
F0.02533532041728763
ssS'KITCHEN LOUISE'
p67
(dp68
g3
I8305
sg4
I0
sg5
I5774
sg6
I00
sg7
I0
sg8
I0
sg9
I0
sg10
I3669
sg11
I0
sg12
I1728
sg13
I93925
sg14
I0
sg15
I3100000
sg16
I547143
sg17
I251
sg18
F0.11226851851851852
sg19
I194
sg20
I466101
sg21
I271442
sg22
I3471141
sg23
I81042
sg24
F0.030222757375075255
ssS'CHAN RONNIE'
p69
(dp70
g3
I0
sg4
I0
sg5
I0
sg6
I00
sg7
I-98784
sg8
I0
sg9
I-32460
sg10
I0
sg11
I0
sg12
I0
sg13
I0
sg14
I98784
sg15
I0
sg16
I0
sg17
I0
sg18
I0
sg19
I0
sg20
I32460
sg21
I0
sg22
I0
sg23
I0
sg24
I0
ssS'BELFER ROBERT'
p71
(dp72
g3
I0
sg4
I-102500
sg5
I0
sg6
I00
sg7
I0
sg8
I0
sg9
I44093
sg10
I0
sg11
I0
sg12
I0
sg13
I0
sg14
I3285
sg15
I0
sg16
I-44093
sg17
I0
sg18
I0
sg19
I0
sg20
I0
sg21
I0
sg22
I102500
sg23
I3285
sg24
I0
ssS'SHANKMAN JEFFREY A'
p73
(dp74
g3
I3221
sg4
I0
sg5
I178979
sg6
I00
sg7
I0
sg8
I554422
sg9
I0
sg10
I1730
sg11
I0
sg12
I2681
sg13
I1191
sg14
I0
sg15
I2000000
sg16
I2072035
sg17
I94
sg18
F0.030958597538232
sg19
I83
sg20
I630137
sg21
I304110
sg22
I3038702
sg23
I1441898
sg24
F0.029183483390251473
ssS'WODRASKA JOHN'
p75
(dp76
g3
I0
sg4
I0
sg5
I0
sg6
I00
sg7
I0
sg8
I0
sg9
I0
sg10
I0
sg11
I0
sg12
I0
sg13
I189583
sg14
I0
sg15
I0
sg16
I0
sg17
I0
sg18
I0
sg19
I0
sg20
I0
sg21
I0
sg22
I189583
sg23
I0
sg24
I0
ssS'BERGSIEKER RICHARD P'
p77
(dp78
g3
I383
sg4
I0
sg5
I59175
sg6
I00
sg7
I-485813
sg8
I180250
sg9
I0
sg10
I233
sg11
I0
sg12
I59
sg13
I427316
sg14
I0
sg15
I250000
sg16
I659249
sg17
I4
sg18
F0.0
sg19
I0
sg20
I659249
sg21
I187922
sg22
I618850
sg23
I0
sg24
F0.010443864229765013
ssS'URQUHART JOHN A'
p79
(dp80
g3
I0
sg4
I0
sg5
I228656
sg6
I00
sg7
I-36666
sg8
I0
sg9
I0
sg10
I0
sg11
I0
sg12
I0
sg13
I0
sg14
I36666
sg15
I0
sg16
I0
sg17
I0
sg18
I0
sg19
I0
sg20
I0
sg21
I0
sg22
I228656
sg23
I0
sg24
I0
ssS'BIBI PHILIPPE A'
p81
(dp82
g3
I1607
sg4
I0
sg5
I38559
sg6
I00
sg7
I0
sg8
I369721
sg9
I0
sg10
I1336
sg11
I0
sg12
I40
sg13
I425688
sg14
I0
sg15
I1000000
sg16
I1843816
sg17
I23
sg18
F0.2
sg19
I8
sg20
I378082
sg21
I213625
sg22
I2047593
sg23
I1465734
sg24
F0.01431238332296204
ssS'RIEKER PAULA H'
p83
(dp84
g3
I1328
sg4
I214678
sg5
I33271
sg6
I01
sg7
I-100000
sg8
I0
sg9
I0
sg10
I1258
sg11
I0
sg12
I82
sg13
I1950
sg14
I0
sg15
I700000
sg16
I1918887
sg17
I35
sg18
F0.5853658536585366
sg19
I48
sg20
I283649
sg21
I249201
sg22
I1099100
sg23
I1635238
sg24
F0.02635542168674699
ssS'WHALEY DAVID A'
p85
(dp86
g3
I0
sg4
I0
sg5
I0
sg6
I00
sg7
I0
sg8
I0
sg9
I0
sg10
I0
sg11
I0
sg12
I0
sg13
I0
sg14
I0
sg15
I0
sg16
I98718
sg17
I0
sg18
I0
sg19
I0
sg20
I0
sg21
I0
sg22
I0
sg23
I98718
sg24
I0
ssS'BECK SALLY W'
p87
(dp88
g3
I7315
sg4
I0
sg5
I37172
sg6
I00
sg7
I0
sg8
I0
sg9
I0
sg10
I2639
sg11
I0
sg12
I4343
sg13
I566
sg14
I0
sg15
I700000
sg16
I126027
sg17
I144
sg18
F0.08887865530739121
sg19
I386
sg20
I126027
sg21
I231330
sg22
I969068
sg23
I0
sg24
F0.01968557758031442
ssS'HAUG DAVID L'
p89
(dp90
g3
I573
sg4
I0
sg5
I475
sg6
I00
sg7
I0
sg8
I0
sg9
I0
sg10
I471
sg11
I0
sg12
I19
sg13
I0
sg14
I0
sg15
I0
sg16
I2217299
sg17
I4
sg18
F0.3684210526315789
sg19
I7
sg20
I2217299
sg21
I0
sg22
I475
sg23
I0
sg24
F0.006980802792321117
ssS'ECHOLS JOHN B'
p91
(dp92
g3
I0
sg4
I0
sg5
I21530
sg6
I00
sg7
I0
sg8
I2234774
sg9
I0
sg10
I0
sg11
I0
sg12
I0
sg13
I53775
sg14
I0
sg15
I200000
sg16
I1008941
sg17
I0
sg18
I0
sg19
I0
sg20
I407503
sg21
I182245
sg22
I2692324
sg23
I601438
sg24
I0
ssS'MENDELSOHN JOHN'
p93
(dp94
g3
I0
sg4
I0
sg5
I148
sg6
I00
sg7
I-103750
sg8
I0
sg9
I0
sg10
I0
sg11
I0
sg12
I0
sg13
I0
sg14
I103750
sg15
I0
sg16
I0
sg17
I0
sg18
I0
sg19
I0
sg20
I0
sg21
I0
sg22
I148
sg23
I0
sg24
I0
ssS'HICKERSON GARY J'
p95
(dp96
g3
I1320
sg4
I0
sg5
I98849
sg6
I00
sg7
I0
sg8
I69223
sg9
I0
sg10
I900
sg11
I0
sg12
I27
sg13
I1936
sg14
I0
sg15
I1700000
sg16
I441096
sg17
I40
sg18
F0.037037037037037035
sg19
I1
sg20
I441096
sg21
I211788
sg22
I2081796
sg23
I0
sg24
F0.030303030303030304
ssS'CLINE KENNETH W'
p97
(dp98
g3
I0
sg4
I0
sg5
I0
sg6
I00
sg7
I0
sg8
I0
sg9
I-472568
sg10
I0
sg11
I0
sg12
I0
sg13
I0
sg14
I0
sg15
I0
sg16
I189518
sg17
I0
sg18
I0
sg19
I0
sg20
I662086
sg21
I0
sg22
I0
sg23
I0
sg24
I0
ssS'LEWIS RICHARD'
p99
(dp100
g3
I952
sg4
I0
sg5
I0
sg6
I00
sg7
I0
sg8
I0
sg9
I0
sg10
I739
sg11
I0
sg12
I26
sg13
I0
sg14
I0
sg15
I0
sg16
I850477
sg17
I10
sg18
F0.0
sg19
I0
sg20
I0
sg21
I0
sg22
I0
sg23
I850477
sg24
F0.01050420168067227
ssS'HAYES ROBERT E'
p101
(dp102
g3
I504
sg4
I7961
sg5
I0
sg6
I00
sg7
I0
sg8
I0
sg9
I0
sg10
I50
sg11
I0
sg12
I12
sg13
I0
sg14
I0
sg15
I0
sg16
I151418
sg17
I16
sg18
F0.0
sg19
I0
sg20
I151418
sg21
I0
sg22
I7961
sg23
I0
sg24
F0.031746031746031744
ssS'MCCARTY DANNY J'
p103
(dp104
g3
I1433
sg4
I0
sg5
I0
sg6
I00
sg7
I0
sg8
I0
sg9
I0
sg10
I508
sg11
I0
sg12
I215
sg13
I0
sg14
I0
sg15
I0
sg16
I758931
sg17
I25
sg18
F0.009302325581395349
sg19
I2
sg20
I94556
sg21
I0
sg22
I0
sg23
I664375
sg24
F0.017445917655268667
ssS'KOPPER MICHAEL J'
p105
(dp106
g3
I0
sg4
I0
sg5
I118134
sg6
I01
sg7
I0
sg8
I602671
sg9
I0
sg10
I0
sg11
I0
sg12
I0
sg13
I907502
sg14
I0
sg15
I800000
sg16
I985032
sg17
I0
sg18
I0
sg19
I0
sg20
I985032
sg21
I224305
sg22
I2652612
sg23
I0
sg24
I0
ssS'LEFF DANIEL P'
p107
(dp108
g3
I2822
sg4
I0
sg5
I0
sg6
I00
sg7
I0
sg8
I1387399
sg9
I0
sg10
I2672
sg11
I0
sg12
I63
sg13
I3083
sg14
I0
sg15
I1000000
sg16
I360528
sg17
I67
sg18
F0.2222222222222222
sg19
I14
sg20
I360528
sg21
I273746
sg22
I2664228
sg23
I0
sg24
F0.02374202693125443
ssS'LAVORATO JOHN J'
p109
(dp110
g3
I7259
sg4
I0
sg5
I49537
sg6
I00
sg7
I0
sg8
I2035380
sg9
I0
sg10
I3962
sg11
I0
sg12
I2585
sg13
I1552
sg14
I0
sg15
I8000000
sg16
I5167144
sg17
I528
sg18
F0.15899419729206962
sg19
I411
sg20
I1008149
sg21
I339288
sg22
I10425757
sg23
I4158995
sg24
F0.07273729163796666
ssS'BERBERIAN DAVID'
p111
(dp112
g3
I0
sg4
I0
sg5
I11892
sg6
I00
sg7
I0
sg8
I0
sg9
I0
sg10
I0
sg11
I0
sg12
I0
sg13
I0
sg14
I0
sg15
I0
sg16
I2493616
sg17
I0
sg18
I0
sg19
I0
sg20
I869220
sg21
I216582
sg22
I228474
sg23
I1624396
sg24
I0
ssS'DETMERING TIMOTHY J'
p113
(dp114
g3
I0
sg4
I875307
sg5
I52255
sg6
I00
sg7
I-775241
sg8
I415657
sg9
I-315068
sg10
I0
sg11
I0
sg12
I0
sg13
I1105
sg14
I0
sg15
I425000
sg16
I2027865
sg17
I0
sg18
I0
sg19
I0
sg20
I315068
sg21
I210500
sg22
I1204583
sg23
I2027865
sg24
I0
ssS'WAKEHAM JOHN'
p115
(dp116
g3
I0
sg4
I0
sg5
I103773
sg6
I00
sg7
I0
sg8
I0
sg9
I0
sg10
I0
sg11
I0
sg12
I0
sg13
I0
sg14
I109298
sg15
I0
sg16
I0
sg17
I0
sg18
I0
sg19
I0
sg20
I0
sg21
I0
sg22
I213071
sg23
I0
sg24
I0
ssS'POWERS WILLIAM'
p117
(dp118
g3
I653
sg4
I0
sg5
I0
sg6
I00
sg7
I-17500
sg8
I0
sg9
I0
sg10
I12
sg11
I0
sg12
I26
sg13
I0
sg14
I17500
sg15
I0
sg16
I0
sg17
I0
sg18
F0.0
sg19
I0
sg20
I0
sg21
I0
sg22
I0
sg23
I0
sg24
F0.0
ssS'GOLD JOSEPH'
p119
(dp120
g3
I0
sg4
I0
sg5
I0
sg6
I00
sg7
I0
sg8
I304805
sg9
I0
sg10
I0
sg11
I0
sg12
I0
sg13
I819288
sg14
I0
sg15
I750000
sg16
I877611
sg17
I0
sg18
I0
sg19
I0
sg20
I441096
sg21
I272880
sg22
I2146973
sg23
I436515
sg24
I0
ssS'BANNANTINE JAMES M'
p121
(dp122
g3
I566
sg4
I0
sg5
I56301
sg6
I00
sg7
I-5104
sg8
I0
sg9
I-560222
sg10
I465
sg11
I0
sg12
I29
sg13
I864523
sg14
I0
sg15
I0
sg16
I5243487
sg17
I39
sg18
F0.0
sg19
I0
sg20
I1757552
sg21
I477
sg22
I916197
sg23
I4046157
sg24
F0.06890459363957598
ssS'DUNCAN JOHN H'
p123
(dp124
g3
I0
sg4
I0
sg5
I0
sg6
I00
sg7
I-25000
sg8
I0
sg9
I0
sg10
I0
sg11
I0
sg12
I0
sg13
I0
sg14
I102492
sg15
I0
sg16
I371750
sg17
I0
sg18
I0
sg19
I0
sg20
I0
sg21
I0
sg22
I77492
sg23
I371750
sg24
I0
ssS'SHAPIRO RICHARD S'
p125
(dp126
g3
I15149
sg4
I0
sg5
I137767
sg6
I00
sg7
I0
sg8
I0
sg9
I0
sg10
I4527
sg11
I0
sg12
I1215
sg13
I705
sg14
I0
sg15
I650000
sg16
I987001
sg17
I74
sg18
F0.053497942386831275
sg19
I65
sg20
I379164
sg21
I269076
sg22
I1057548
sg23
I607837
sg24
F0.0048848108786058485
ssS'SHERRIFF JOHN R'
p127
(dp128
g3
I3187
sg4
I0
sg5
I0
sg6
I00
sg7
I0
sg8
I554422
sg9
I0
sg10
I2103
sg11
I0
sg12
I92
sg13
I1852186
sg14
I0
sg15
I1500000
sg16
I3128982
sg17
I28
sg18
F0.25
sg19
I23
sg20
I1293424
sg21
I428780
sg22
I4335388
sg23
I1835558
sg24
F0.008785691873235017
ssS'SHELBY REX'
p129
(dp130
g3
I225
sg4
I0
sg5
I22884
sg6
I01
sg7
I-4167
sg8
I0
sg9
I0
sg10
I91
sg11
I0
sg12
I39
sg13
I1573324
sg14
I0
sg15
I200000
sg16
I2493616
sg17
I13
sg18
F0.358974358974359
sg19
I14
sg20
I869220
sg21
I211844
sg22
I2003885
sg23
I1624396
sg24
F0.057777777777777775
ssS'LEMAISTRE CHARLES'
p131
(dp132
g3
I0
sg4
I0
sg5
I0
sg6
I00
sg7
I-25000
sg8
I0
sg9
I0
sg10
I0
sg11
I0
sg12
I0
sg13
I0
sg14
I112492
sg15
I0
sg16
I412878
sg17
I0
sg18
I0
sg19
I0
sg20
I0
sg21
I0
sg22
I87492
sg23
I412878
sg24
I0
ssS'DEFFNER JOSEPH M'
p133
(dp134
g3
I714
sg4
I0
sg5
I41626
sg6
I00
sg7
I0
sg8
I335349
sg9
I0
sg10
I552
sg11
I0
sg12
I74
sg13
I25553
sg14
I0
sg15
I600000
sg16
I159211
sg17
I115
sg18
F0.05405405405405406
sg19
I4
sg20
I141833
sg21
I206121
sg22
I1208649
sg23
I17378
sg24
F0.16106442577030813
ssS'KISHKILL JOSEPH G'
p135
(dp136
g3
I0
sg4
I0
sg5
I116335
sg6
I00
sg7
I-51042
sg8
I0
sg9
I0
sg10
I0
sg11
I0
sg12
I0
sg13
I465357
sg14
I0
sg15
I0
sg16
I1034346
sg17
I0
sg18
I0
sg19
I0
sg20
I1034346
sg21
I174246
sg22
I704896
sg23
I0
sg24
I0
ssS'WHALLEY LAWRENCE G'
p137
(dp138
g3
I6019
sg4
I0
sg5
I57838
sg6
I00
sg7
I0
sg8
I808346
sg9
I0
sg10
I3920
sg11
I0
sg12
I556
sg13
I301026
sg14
I0
sg15
I3000000
sg16
I6079137
sg17
I186
sg18
F0.04316546762589928
sg19
I24
sg20
I2796177
sg21
I510364
sg22
I4677574
sg23
I3282960
sg24
F0.03090214321315833
ssS'MCCONNELL MICHAEL S'
p139
(dp140
g3
I3329
sg4
I0
sg5
I81364
sg6
I00
sg7
I0
sg8
I554422
sg9
I0
sg10
I2189
sg11
I0
sg12
I2742
sg13
I540
sg14
I0
sg15
I1100000
sg16
I3101279
sg17
I92
sg18
F0.07075127644055434
sg19
I194
sg20
I1478269
sg21
I365038
sg22
I2101364
sg23
I1623010
sg24
F0.02763592670471613
ssS'PIRO JIM'
p141
(dp142
g3
I58
sg4
I0
sg5
I0
sg6
I00
sg7
I0
sg8
I0
sg9
I0
sg10
I3
sg11
I0
sg12
I16
sg13
I0
sg14
I0
sg15
I0
sg16
I47304
sg17
I0
sg18
F0.0625
sg19
I1
sg20
I47304
sg21
I0
sg22
I0
sg23
I0
sg24
F0.0
ssS'DELAINEY DAVID W'
p143
(dp144
g3
I3093
sg4
I0
sg5
I86174
sg6
I01
sg7
I0
sg8
I1294981
sg9
I0
sg10
I2097
sg11
I0
sg12
I3069
sg13
I1661
sg14
I0
sg15
I3000000
sg16
I3614261
sg17
I66
sg18
F0.198435972629521
sg19
I609
sg20
I1323148
sg21
I365163
sg22
I4747979
sg23
I2291113
sg24
F0.02133850630455868
ssS'SULLIVAN-SHAKLOVITZ COLLEEN'
p145
(dp146
g3
I0
sg4
I181993
sg5
I0
sg6
I00
sg7
I0
sg8
I554422
sg9
I0
sg10
I0
sg11
I0
sg12
I0
sg13
I162
sg14
I0
sg15
I100000
sg16
I1362375
sg17
I0
sg18
I0
sg19
I0
sg20
I0
sg21
I162779
sg22
I999356
sg23
I1362375
sg24
I0
ssS'WROBEL BRUCE'
p147
(dp148
g3
I0
sg4
I0
sg5
I0
sg6
I00
sg7
I0
sg8
I0
sg9
I0
sg10
I0
sg11
I0
sg12
I0
sg13
I0
sg14
I0
sg15
I0
sg16
I139130
sg17
I0
sg18
I0
sg19
I0
sg20
I0
sg21
I0
sg22
I0
sg23
I139130
sg24
I0
ssS'LINDHOLM TOD A'
p149
(dp150
g3
I0
sg4
I204075
sg5
I57727
sg6
I00
sg7
I0
sg8
I175000
sg9
I0
sg10
I0
sg11
I0
sg12
I0
sg13
I2630
sg14
I0
sg15
I200000
sg16
I3064208
sg17
I0
sg18
I0
sg19
I0
sg20
I514847
sg21
I236457
sg22
I875889
sg23
I2549361
sg24
I0
ssS'MEYER JEROME J'
p151
(dp152
g3
I0
sg4
I0
sg5
I2151
sg6
I00
sg7
I-38346
sg8
I0
sg9
I0
sg10
I0
sg11
I0
sg12
I0
sg13
I0
sg14
I38346
sg15
I0
sg16
I0
sg17
I0
sg18
I0
sg19
I0
sg20
I0
sg21
I0
sg22
I2151
sg23
I0
sg24
I0
ssS'LAY KENNETH L'
p153
(dp154
g3
I4273
sg4
I202911
sg5
I99832
sg6
I01
sg7
I-300000
sg8
I3600000
sg9
I0
sg10
I2411
sg11
I81525000
sg12
I36
sg13
I10359729
sg14
I0
sg15
I7000000
sg16
I49110078
sg17
I123
sg18
F0.4444444444444444
sg19
I16
sg20
I14761694
sg21
I1072321
sg22
I103559793
sg23
I34348384
sg24
F0.028785396676807865
ssS'BUTTS ROBERT H'
p155
(dp156
g3
I0
sg4
I0
sg5
I9410
sg6
I00
sg7
I-75000
sg8
I175000
sg9
I0
sg10
I0
sg11
I0
sg12
I0
sg13
I150656
sg14
I0
sg15
I750000
sg16
I417619
sg17
I0
sg18
I0
sg19
I0
sg20
I417619
sg21
I261516
sg22
I1271582
sg23
I0
sg24
I0
ssS'OLSON CINDY K'
p157
(dp158
g3
I1184
sg4
I77716
sg5
I63791
sg6
I00
sg7
I0
sg8
I100000
sg9
I0
sg10
I856
sg11
I0
sg12
I52
sg13
I972
sg14
I0
sg15
I750000
sg16
I2606763
sg17
I20
sg18
F0.28846153846153844
sg19
I15
sg20
I969729
sg21
I329078
sg22
I1321557
sg23
I1637034
sg24
F0.016891891891891893
ssS'MCDONALD REBECCA'
p159
(dp160
g3
I894
sg4
I0
sg5
I0
sg6
I00
sg7
I0
sg8
I0
sg9
I0
sg10
I720
sg11
I0
sg12
I13
sg13
I0
sg14
I0
sg15
I0
sg16
I1691366
sg17
I54
sg18
F0.07692307692307693
sg19
I1
sg20
I934065
sg21
I0
sg22
I0
sg23
I757301
sg24
F0.06040268456375839
ssS'CUMBERLAND MICHAEL S'
p161
(dp162
g3
I0
sg4
I0
sg5
I22344
sg6
I00
sg7
I0
sg8
I275000
sg9
I0
sg10
I0
sg11
I0
sg12
I0
sg13
I713
sg14
I0
sg15
I325000
sg16
I207940
sg17
I0
sg18
I0
sg19
I0
sg20
I207940
sg21
I184899
sg22
I807956
sg23
I0
sg24
I0
ssS'GAHN ROBERT S'
p163
(dp164
g3
I0
sg4
I73122
sg5
I50080
sg6
I00
sg7
I-1042
sg8
I0
sg9
I0
sg10
I0
sg11
I0
sg12
I0
sg13
I76547
sg14
I0
sg15
I509870
sg16
I318607
sg17
I0
sg18
I0
sg19
I0
sg20
I235370
sg21
I192008
sg22
I900585
sg23
I83237
sg24
I0
ssS'MCCLELLAN GEORGE'
p165
(dp166
g3
I1744
sg4
I0
sg5
I228763
sg6
I00
sg7
I-125000
sg8
I0
sg9
I0
sg10
I1469
sg11
I0
sg12
I49
sg13
I51587
sg14
I0
sg15
I900000
sg16
I947861
sg17
I52
sg18
F0.0
sg19
I0
sg20
I441096
sg21
I263413
sg22
I1318763
sg23
I506765
sg24
F0.02981651376146789
ssS'HERMANN ROBERT J'
p167
(dp168
g3
I0
sg4
I0
sg5
I48357
sg6
I00
sg7
I-280000
sg8
I150000
sg9
I0
sg10
I0
sg11
I0
sg12
I0
sg13
I416441
sg14
I0
sg15
I700000
sg16
I668132
sg17
I0
sg18
I0
sg19
I0
sg20
I480632
sg21
I262663
sg22
I1297461
sg23
I187500
sg24
I0
ssS'SCRIMSHAW MATTHEW'
p169
(dp170
g3
I0
sg4
I0
sg5
I0
sg6
I00
sg7
I0
sg8
I0
sg9
I0
sg10
I0
sg11
I0
sg12
I0
sg13
I0
sg14
I0
sg15
I0
sg16
I759557
sg17
I0
sg18
I0
sg19
I0
sg20
I0
sg21
I0
sg22
I0
sg23
I759557
sg24
I0
ssS'GATHMANN WILLIAM D'
p171
(dp172
g3
I0
sg4
I0
sg5
I0
sg6
I00
sg7
I0
sg8
I0
sg9
I-72419
sg10
I0
sg11
I0
sg12
I0
sg13
I0
sg14
I0
sg15
I0
sg16
I1945360
sg17
I0
sg18
I0
sg19
I0
sg20
I264013
sg21
I0
sg22
I0
sg23
I1753766
sg24
I0
ssS'HAEDICKE MARK E'
p173
(dp174
g3
I4009
sg4
I2157527
sg5
I76169
sg6
I00
sg7
I-934484
sg8
I983346
sg9
I-329825
sg10
I1847
sg11
I0
sg12
I1941
sg13
I52382
sg14
I0
sg15
I1150000
sg16
I803094
sg17
I180
sg18
F0.03142709943328181
sg19
I61
sg20
I524169
sg21
I374125
sg22
I3859065
sg23
I608750
sg24
F0.04489897730107259
ssS'BOWEN JR RAYMOND M'
p175
(dp176
g3
I1858
sg4
I0
sg5
I65907
sg6
I01
sg7
I-833
sg8
I974293
sg9
I0
sg10
I1593
sg11
I0
sg12
I27
sg13
I1621
sg14
I0
sg15
I1350000
sg16
I252055
sg17
I140
sg18
F0.5555555555555556
sg19
I15
sg20
I252055
sg21
I278601
sg22
I2669589
sg23
I0
sg24
F0.07534983853606028
ssS'GILLIS JOHN'
p177
(dp178
g3
I0
sg4
I0
sg5
I0
sg6
I00
sg7
I0
sg8
I0
sg9
I0
sg10
I0
sg11
I0
sg12
I0
sg13
I0
sg14
I0
sg15
I0
sg16
I85641
sg17
I0
sg18
I0
sg19
I0
sg20
I75838
sg21
I0
sg22
I0
sg23
I9803
sg24
I0
ssS'FITZGERALD JAY L'
p179
(dp180
g3
I936
sg4
I0
sg5
I23870
sg6
I00
sg7
I0
sg8
I556416
sg9
I0
sg10
I723
sg11
I0
sg12
I16
sg13
I285414
sg14
I0
sg15
I350000
sg16
I1621236
sg17
I1
sg18
F0.5
sg19
I8
sg20
I956775
sg21
I199157
sg22
I1414857
sg23
I664461
sg24
F0.0010683760683760685
ssS'MORAN MICHAEL P'
p181
(dp182
g3
I672
sg4
I0
sg5
I0
sg6
I00
sg7
I0
sg8
I0
sg9
I0
sg10
I127
sg11
I0
sg12
I19
sg13
I0
sg14
I0
sg15
I0
sg16
I221141
sg17
I0
sg18
F0.0
sg19
I0
sg20
I161602
sg21
I0
sg22
I0
sg23
I59539
sg24
F0.0
ssS'REDMOND BRIAN L'
p183
(dp184
g3
I1671
sg4
I0
sg5
I14689
sg6
I00
sg7
I0
sg8
I0
sg9
I0
sg10
I1063
sg11
I0
sg12
I221
sg13
I0
sg14
I0
sg15
I0
sg16
I7890324
sg17
I204
sg18
F0.22171945701357465
sg19
I49
sg20
I381285
sg21
I96840
sg22
I111529
sg23
I7509039
sg24
F0.12208258527827648
ssS'BAZELIDES PHILIP J'
p185
(dp186
g3
I0
sg4
I684694
sg5
I0
sg6
I00
sg7
I0
sg8
I93750
sg9
I0
sg10
I0
sg11
I0
sg12
I0
sg13
I874
sg14
I0
sg15
I0
sg16
I1599641
sg17
I0
sg18
I0
sg19
I0
sg20
I0
sg21
I80818
sg22
I860136
sg23
I1599641
sg24
I0
ssS'BELDEN TIMOTHY N'
p187
(dp188
g3
I7991
sg4
I2144013
sg5
I17355
sg6
I01
sg7
I-2334434
sg8
I0
sg9
I0
sg10
I5521
sg11
I0
sg12
I484
sg13
I210698
sg14
I0
sg15
I5249999
sg16
I1110705
sg17
I228
sg18
F0.2231404958677686
sg19
I108
sg20
I157569
sg21
I213999
sg22
I5501630
sg23
I953136
sg24
F0.028532098610937303
ssS'DURAN WILLIAM D'
p189
(dp190
g3
I904
sg4
I0
sg5
I25785
sg6
I00
sg7
I0
sg8
I1105218
sg9
I0
sg10
I599
sg11
I0
sg12
I12
sg13
I1568
sg14
I0
sg15
I750000
sg16
I1640910
sg17
I106
sg18
F0.25
sg19
I3
sg20
I189041
sg21
I210692
sg22
I2093263
sg23
I1451869
sg24
F0.1172566371681416
ssS'THORN TERENCE H'
p191
(dp192
g3
I266
sg4
I16586
sg5
I46145
sg6
I00
sg7
I0
sg8
I200000
sg9
I0
sg10
I73
sg11
I0
sg12
I41
sg13
I426629
sg14
I0
sg15
I0
sg16
I4817796
sg17
I0
sg18
F0.0
sg19
I0
sg20
I365320
sg21
I222093
sg22
I911453
sg23
I4452476
sg24
F0.0
ssS'FASTOW ANDREW S'
p193
(dp194
g3
I0
sg4
I0
sg5
I55921
sg6
I01
sg7
I-1386055
sg8
I1736055
sg9
I0
sg10
I0
sg11
I0
sg12
I0
sg13
I277464
sg14
I0
sg15
I1300000
sg16
I1794412
sg17
I0
sg18
I0
sg19
I0
sg20
I1794412
sg21
I440698
sg22
I2424083
sg23
I0
sg24
I0
ssS'FOY JOE'
p195
(dp196
g3
I57
sg4
I181755
sg5
I0
sg6
I00
sg7
I0
sg8
I0
sg9
I0
sg10
I2
sg11
I0
sg12
I13
sg13
I0
sg14
I0
sg15
I0
sg16
I343434
sg17
I0
sg18
F0.0
sg19
I0
sg20
I0
sg21
I0
sg22
I181755
sg23
I343434
sg24
F0.0
ssS'CALGER CHRISTOPHER F'
p197
(dp198
g3
I2598
sg4
I0
sg5
I35818
sg6
I01
sg7
I-262500
sg8
I375304
sg9
I0
sg10
I2188
sg11
I0
sg12
I144
sg13
I486
sg14
I0
sg15
I1250000
sg16
I126027
sg17
I199
sg18
F0.1736111111111111
sg19
I25
sg20
I126027
sg21
I240189
sg22
I1639297
sg23
I0
sg24
F0.07659738260200154
ssS'RICE KENNETH D'
p199
(dp200
g3
I905
sg4
I0
sg5
I46950
sg6
I01
sg7
I-3504386
sg8
I1617011
sg9
I0
sg10
I864
sg11
I0
sg12
I18
sg13
I174839
sg14
I0
sg15
I1750000
sg16
I22542539
sg17
I42
sg18
F0.2222222222222222
sg19
I4
sg20
I2748364
sg21
I420636
sg22
I505050
sg23
I19794175
sg24
F0.04640883977900553
ssS'KAMINSKI WINCENTY J'
p201
(dp202
g3
I4607
sg4
I0
sg5
I83585
sg6
I00
sg7
I0
sg8
I323466
sg9
I0
sg10
I583
sg11
I0
sg12
I14368
sg13
I4669
sg14
I0
sg15
I400000
sg16
I976037
sg17
I41
sg18
F0.011901447661469933
sg19
I171
sg20
I126027
sg21
I275101
sg22
I1086821
sg23
I850010
sg24
F0.008899500759713479
ssS'COX DAVID'
p203
(dp204
g3
I102
sg4
I0
sg5
I27861
sg6
I00
sg7
I-41250
sg8
I0
sg9
I0
sg10
I71
sg11
I0
sg12
I33
sg13
I494
sg14
I0
sg15
I800000
sg16
I495633
sg17
I0
sg18
F0.12121212121212122
sg19
I4
sg20
I378082
sg21
I314288
sg22
I1101393
sg23
I117551
sg24
F0.0
ssS'OVERDYKE JR JERE C'
p205
(dp206
g3
I0
sg4
I0
sg5
I18834
sg6
I00
sg7
I0
sg8
I135836
sg9
I0
sg10
I0
sg11
I0
sg12
I0
sg13
I176
sg14
I0
sg15
I0
sg16
I7307594
sg17
I0
sg18
I0
sg19
I0
sg20
I2041016
sg21
I94941
sg22
I249787
sg23
I5266578
sg24
I0
ssS'PEREIRA PAULO V. FERRAZ'
p207
(dp208
g3
I0
sg4
I0
sg5
I27942
sg6
I00
sg7
I-101250
sg8
I0
sg9
I0
sg10
I0
sg11
I0
sg12
I0
sg13
I0
sg14
I101250
sg15
I0
sg16
I0
sg17
I0
sg18
I0
sg19
I0
sg20
I0
sg21
I0
sg22
I27942
sg23
I0
sg24
I0
ssS'STABLER FRANK'
p209
(dp210
g3
I0
sg4
I0
sg5
I16514
sg6
I00
sg7
I0
sg8
I0
sg9
I0
sg10
I0
sg11
I0
sg12
I0
sg13
I356071
sg14
I0
sg15
I500000
sg16
I511734
sg17
I0
sg18
I0
sg19
I0
sg20
I511734
sg21
I239502
sg22
I1112087
sg23
I0
sg24
I0
ssS'SKILLING JEFFREY K'
p211
(dp212
g3
I3627
sg4
I0
sg5
I29336
sg6
I01
sg7
I0
sg8
I1920000
sg9
I0
sg10
I2042
sg11
I0
sg12
I108
sg13
I22122
sg14
I0
sg15
I5600000
sg16
I26093672
sg17
I88
sg18
F0.2777777777777778
sg19
I30
sg20
I6843672
sg21
I1111258
sg22
I8682716
sg23
I19250000
sg24
F0.0242624758753791
ssS'BLAKE JR. NORMAN P'
p213
(dp214
g3
I0
sg4
I0
sg5
I1279
sg6
I00
sg7
I-113784
sg8
I0
sg9
I0
sg10
I0
sg11
I0
sg12
I0
sg13
I0
sg14
I113784
sg15
I0
sg16
I0
sg17
I0
sg18
I0
sg19
I0
sg20
I0
sg21
I0
sg22
I1279
sg23
I0
sg24
I0
ssS'SHERRICK JEFFREY B'
p215
(dp216
g3
I613
sg4
I0
sg5
I0
sg6
I00
sg7
I0
sg8
I0
sg9
I0
sg10
I583
sg11
I0
sg12
I25
sg13
I0
sg14
I0
sg15
I0
sg16
I1832468
sg17
I39
sg18
F0.72
sg19
I18
sg20
I405999
sg21
I0
sg22
I0
sg23
I1426469
sg24
F0.0636215334420881
ssS'PRENTICE JAMES'
p217
(dp218
g3
I0
sg4
I564348
sg5
I0
sg6
I00
sg7
I0
sg8
I0
sg9
I0
sg10
I0
sg11
I0
sg12
I0
sg13
I0
sg14
I0
sg15
I0
sg16
I1095040
sg17
I0
sg18
I0
sg19
I0
sg20
I208809
sg21
I0
sg22
I564348
sg23
I886231
sg24
I0
ssS'GRAY RODNEY'
p219
(dp220
g3
I0
sg4
I93585
sg5
I0
sg6
I00
sg7
I0
sg8
I365625
sg9
I0
sg10
I0
sg11
I0
sg12
I0
sg13
I680833
sg14
I0
sg15
I0
sg16
I0
sg17
I0
sg18
I0
sg19
I0
sg20
I0
sg21
I6615
sg22
I1146658
sg23
I0
sg24
I0
ssS'PICKERING MARK R'
p221
(dp222
g3
I898
sg4
I0
sg5
I31653
sg6
I00
sg7
I0
sg8
I0
sg9
I0
sg10
I728
sg11
I400000
sg12
I67
sg13
I0
sg14
I0
sg15
I300000
sg16
I28798
sg17
I7
sg18
F0.0
sg19
I0
sg20
I0
sg21
I655037
sg22
I1386690
sg23
I28798
sg24
F0.0077951002227171495
ssS'THE TRAVEL AGENCY IN THE PARK'
p223
(dp224
g3
I0
sg4
I0
sg5
I0
sg6
I00
sg7
I0
sg8
I0
sg9
I0
sg10
I0
sg11
I0
sg12
I0
sg13
I362096
sg14
I0
sg15
I0
sg16
I0
sg17
I0
sg18
I0
sg19
I0
sg20
I0
sg21
I0
sg22
I362096
sg23
I0
sg24
I0
ssS'NOLES JAMES L'
p225
(dp226
g3
I0
sg4
I774401
sg5
I0
sg6
I00
sg7
I0
sg8
I0
sg9
I-94556
sg10
I0
sg11
I0
sg12
I0
sg13
I0
sg14
I0
sg15
I0
sg16
I368705
sg17
I0
sg18
I0
sg19
I0
sg20
I463261
sg21
I0
sg22
I774401
sg23
I0
sg24
I0
ssS'KEAN STEVEN J'
p227
(dp228
g3
I12754
sg4
I0
sg5
I41953
sg6
I00
sg7
I0
sg8
I300000
sg9
I0
sg10
I3639
sg11
I0
sg12
I6759
sg13
I1231
sg14
I0
sg15
I1000000
sg16
I6153642
sg17
I140
sg18
F0.05725699067909454
sg19
I387
sg20
I4131594
sg21
I404338
sg22
I1747522
sg23
I2022048
sg24
F0.010976948408342482
ssS'FOWLER PEGGY'
p229
(dp230
g3
I517
sg4
I0
sg5
I0
sg6
I00
sg7
I0
sg8
I0
sg9
I0
sg10
I10
sg11
I0
sg12
I36
sg13
I0
sg14
I0
sg15
I0
sg16
I1884748
sg17
I0
sg18
F0.0
sg19
I0
sg20
I560170
sg21
I0
sg22
I0
sg23
I1324578
sg24
F0.0
ssS'WASAFF GEORGE'
p231
(dp232
g3
I400
sg4
I831299
sg5
I0
sg6
I00
sg7
I-583325
sg8
I200000
sg9
I0
sg10
I337
sg11
I0
sg12
I30
sg13
I1425
sg14
I0
sg15
I325000
sg16
I2056427
sg17
I22
sg18
F0.23333333333333334
sg19
I7
sg20
I388167
sg21
I259996
sg22
I1034395
sg23
I1668260
sg24
F0.055
ssS'WHITE JR THOMAS E'
p233
(dp234
g3
I0
sg4
I0
sg5
I81353
sg6
I00
sg7
I0
sg8
I0
sg9
I0
sg10
I0
sg11
I0
sg12
I0
sg13
I1085463
sg14
I0
sg15
I450000
sg16
I15144123
sg17
I0
sg18
I0
sg19
I0
sg20
I13847074
sg21
I317543
sg22
I1934359
sg23
I1297049
sg24
I0
ssS'CHRISTODOULOU DIOMEDES'
p235
(dp236
g3
I0
sg4
I0
sg5
I0
sg6
I00
sg7
I0
sg8
I0
sg9
I0
sg10
I0
sg11
I0
sg12
I0
sg13
I0
sg14
I0
sg15
I0
sg16
I6077885
sg17
I0
sg18
I0
sg19
I0
sg20
I950730
sg21
I0
sg22
I0
sg23
I5127155
sg24
I0
ssS'ALLEN PHILLIP K'
p237
(dp238
g3
I2902
sg4
I2869717
sg5
I13868
sg6
I00
sg7
I-3081055
sg8
I304805
sg9
I-126027
sg10
I1407
sg11
I0
sg12
I2195
sg13
I152
sg14
I0
sg15
I4175000
sg16
I1729541
sg17
I47
sg18
F0.029612756264236904
sg19
I65
sg20
I126027
sg21
I201955
sg22
I4484442
sg23
I1729541
sg24
F0.016195727084769126
ssS'SHARP VICTORIA T'
p239
(dp240
g3
I3136
sg4
I187469
sg5
I116337
sg6
I00
sg7
I0
sg8
I422158
sg9
I0
sg10
I2477
sg11
I0
sg12
I136
sg13
I2401
sg14
I0
sg15
I600000
sg16
I494136
sg17
I24
sg18
F0.04411764705882353
sg19
I6
sg20
I213063
sg21
I248146
sg22
I1576511
sg23
I281073
sg24
F0.007653061224489796
ssS'JAEDICKE ROBERT'
p241
(dp242
g3
I0
sg4
I0
sg5
I0
sg6
I00
sg7
I-25000
sg8
I0
sg9
I-44093
sg10
I0
sg11
I0
sg12
I0
sg13
I0
sg14
I108750
sg15
I0
sg16
I431750
sg17
I0
sg18
I0
sg19
I0
sg20
I44093
sg21
I0
sg22
I83750
sg23
I431750
sg24
I0
ssS'WINOKUR JR. HERBERT S'
p243
(dp244
g3
I0
sg4
I0
sg5
I1413
sg6
I00
sg7
I-25000
sg8
I0
sg9
I0
sg10
I0
sg11
I0
sg12
I0
sg13
I0
sg14
I108579
sg15
I0
sg16
I0
sg17
I0
sg18
I0
sg19
I0
sg20
I0
sg21
I0
sg22
I84992
sg23
I0
sg24
I0
ssS'BROWN MICHAEL'
p245
(dp246
g3
I1486
sg4
I0
sg5
I49288
sg6
I00
sg7
I0
sg8
I0
sg9
I0
sg10
I761
sg11
I0
sg12
I41
sg13
I0
sg14
I0
sg15
I0
sg16
I0
sg17
I13
sg18
F0.024390243902439025
sg19
I1
sg20
I0
sg21
I0
sg22
I49288
sg23
I0
sg24
F0.008748317631224764
ssS'BADUM JAMES P'
p247
(dp248
g3
I0
sg4
I178980
sg5
I3486
sg6
I00
sg7
I0
sg8
I0
sg9
I0
sg10
I0
sg11
I0
sg12
I0
sg13
I0
sg14
I0
sg15
I0
sg16
I257817
sg17
I0
sg18
I0
sg19
I0
sg20
I0
sg21
I0
sg22
I182466
sg23
I257817
sg24
I0
ssS'HUGHES JAMES A'
p249
(dp250
g3
I719
sg4
I0
sg5
I0
sg6
I00
sg7
I0
sg8
I0
sg9
I0
sg10
I589
sg11
I0
sg12
I34
sg13
I0
sg14
I0
sg15
I0
sg16
I1118394
sg17
I35
sg18
F0.14705882352941177
sg19
I5
sg20
I363428
sg21
I0
sg22
I0
sg23
I754966
sg24
F0.048678720445062586
ssS'REYNOLDS LAWRENCE'
p251
(dp252
g3
I0
sg4
I51365
sg5
I8409
sg6
I00
sg7
I-200000
sg8
I156250
sg9
I-140264
sg10
I0
sg11
I0
sg12
I0
sg13
I202052
sg14
I0
sg15
I100000
sg16
I4221891
sg17
I0
sg18
I0
sg19
I0
sg20
I201483
sg21
I76399
sg22
I394475
sg23
I4160672
sg24
I0
ssS'DIMICHELE RICHARD G'
p253
(dp254
g3
I0
sg4
I0
sg5
I35812
sg6
I00
sg7
I0
sg8
I694862
sg9
I0
sg10
I0
sg11
I0
sg12
I0
sg13
I374689
sg14
I0
sg15
I1000000
sg16
I8317782
sg17
I0
sg18
I0
sg19
I0
sg20
I126027
sg21
I262788
sg22
I2368151
sg23
I8191755
sg24
I0
ssS'BHATNAGAR SANJAY'
p255
(dp256
g3
I523
sg4
I0
sg5
I0
sg6
I00
sg7
I0
sg8
I0
sg9
I15456290
sg10
I463
sg11
I0
sg12
I29
sg13
I137864
sg14
I137864
sg15
I0
sS'total_stock_value'
p257
I0
sg17
I0
sg18
F0.034482758620689655
sg19
I1
sg20
I-2604490
sg21
I0
sg22
I15456290
sg23
I2604490
sg24
F0.0
ssS'CARTER REBECCA C'
p258
(dp259
g3
I312
sg4
I0
sg5
I0
sg6
I00
sg7
I-159792
sg8
I75000
sg9
I-307301
sg10
I196
sg11
I0
sg12
I15
sg13
I540
sg14
I0
sg15
I300000
sg16
I0
sg17
I29
sg18
F0.4666666666666667
sg19
I7
sg20
I307301
sg21
I261809
sg22
I477557
sg23
I0
sg24
F0.09294871794871795
ssS'BUCHANAN HAROLD G'
p260
(dp261
g3
I1088
sg4
I0
sg5
I600
sg6
I00
sg7
I0
sg8
I304805
sg9
I0
sg10
I23
sg11
I0
sg12
I125
sg13
I1215
sg14
I0
sg15
I500000
sg16
I1014505
sg17
I0
sg18
F0.0
sg19
I0
sg20
I189041
sg21
I248017
sg22
I1054637
sg23
I825464
sg24
F0.0
ssS'YEAP SOON'
p262
(dp263
g3
I0
sg4
I0
sg5
I55097
sg6
I00
sg7
I0
sg8
I0
sg9
I0
sg10
I0
sg11
I0
sg12
I0
sg13
I0
sg14
I0
sg15
I0
sg16
I192758
sg17
I0
sg18
I0
sg19
I0
sg20
I0
sg21
I0
sg22
I55097
sg23
I192758
sg24
I0
ssS'MURRAY JULIA H'
p264
(dp265
g3
I2192
sg4
I0
sg5
I57580
sg6
I00
sg7
I0
sg8
I125000
sg9
I0
sg10
I395
sg11
I0
sg12
I45
sg13
I330
sg14
I0
sg15
I400000
sg16
I597461
sg17
I11
sg18
F0.044444444444444446
sg19
I2
sg20
I196983
sg21
I229284
sg22
I812194
sg23
I400478
sg24
F0.005018248175182482
ssS'GARLAND C KEVIN'
p266
(dp267
g3
I209
sg4
I0
sg5
I48405
sg6
I00
sg7
I0
sg8
I375304
sg9
I0
sg10
I178
sg11
I0
sg12
I44
sg13
I60814
sg14
I0
sg15
I850000
sg16
I896153
sg17
I10
sg18
F0.6136363636363636
sg19
I27
sg20
I259907
sg21
I231946
sg22
I1566469
sg23
I636246
sg24
F0.04784688995215311
ssS'DODSON KEITH'
p268
(dp269
g3
I176
sg4
I0
sg5
I28164
sg6
I00
sg7
I0
sg8
I0
sg9
I0
sg10
I114
sg11
I0
sg12
I14
sg13
I774
sg14
I0
sg15
I70000
sg16
I0
sg17
I10
sg18
F0.21428571428571427
sg19
I3
sg20
I0
sg21
I221003
sg22
I319941
sg23
I0
sg24
F0.056818181818181816
ssS'YEAGER F SCOTT'
p270
(dp271
g3
I0
sg4
I0
sg5
I53947
sg6
I01
sg7
I0
sg8
I0
sg9
I0
sg10
I0
sg11
I0
sg12
I0
sg13
I147950
sg14
I0
sg15
I0
sg16
I11884758
sg17
I0
sg18
I0
sg19
I0
sg20
I3576206
sg21
I158403
sg22
I360300
sg23
I8308552
sg24
I0
ssS'HIRKO JOSEPH'
p272
(dp273
g3
I0
sg4
I10259
sg5
I77978
sg6
I01
sg7
I0
sg8
I0
sg9
I0
sg10
I0
sg11
I0
sg12
I0
sg13
I2856
sg14
I0
sg15
I0
sg16
I30766064
sg17
I0
sg18
I0
sg19
I0
sg20
I0
sg21
I0
sg22
I91093
sg23
I30766064
sg24
I0
ssS'DIETRICH JANET R'
p274
(dp275
g3
I2572
sg4
I0
sg5
I3475
sg6
I00
sg7
I0
sg8
I556416
sg9
I0
sg10
I1902
sg11
I0
sg12
I63
sg13
I473
sg14
I0
sg15
I600000
sg16
I1865087
sg17
I305
sg18
F0.2222222222222222
sg19
I14
sg20
I315068
sg21
I250100
sg22
I1410464
sg23
I1550019
sg24
F0.11858475894245724
ssS'DERRICK JR. JAMES V'
p276
(dp277
g3
I2181
sg4
I0
sg5
I51124
sg6
I00
sg7
I-1284000
sg8
I484000
sg9
I-1787380
sg10
I1401
sg11
I0
sg12
I909
sg13
I7482
sg14
I0
sg15
I800000
sg16
I8831913
sg17
I64
sg18
F0.022002200220022004
sg19
I20
sg20
I1787380
sg21
I492375
sg22
I550981
sg23
I8831913
sg24
F0.029344337459880788
ssS'FREVERT MARK A'
p278
(dp279
g3
I3275
sg4
I6426990
sg5
I86987
sg6
I00
sg7
I-3367011
sg8
I1617011
sg9
I0
sg10
I2979
sg11
I2000000
sg12
I21
sg13
I7427621
sg14
I0
sg15
I2000000
sg16
I14622185
sg17
I242
sg18
F0.2857142857142857
sg19
I6
sg20
I4188667
sg21
I1060932
sg22
I17252530
sg23
I10433518
sg24
F0.07389312977099237
ssS'PAI LOU L'
p280
(dp281
g3
I0
sg4
I0
sg5
I32047
sg6
I00
sg7
I0
sg8
I0
sg9
I0
sg10
I0
sg11
I0
sg12
I0
sg13
I1829457
sg14
I0
sg15
I1000000
sg16
I23817930
sg17
I0
sg18
I0
sg19
I0
sg20
I8453763
sg21
I261879
sg22
I3123383
sg23
I15364167
sg24
I0
ssS'BAY FRANKLIN R'
p282
(dp283
g3
I0
sg4
I260455
sg5
I129142
sg6
I00
sg7
I-201641
sg8
I0
sg9
I-82782
sg10
I0
sg11
I0
sg12
I0
sg13
I69
sg14
I0
sg15
I400000
sg16
I63014
sg17
I0
sg18
I0
sg19
I0
sg20
I145796
sg21
I239671
sg22
I827696
sg23
I0
sg24
I0
ssS'HAYSLETT RODERICK J'
p284
(dp285
g3
I2649
sg4
I0
sg5
I0
sg6
I00
sg7
I0
sg8
I0
sg9
I0
sg10
I571
sg11
I0
sg12
I1061
sg13
I0
sg14
I0
sg15
I0
sg16
I346663
sg17
I35
sg18
F0.03581526861451461
sg19
I38
sg20
I346663
sg21
I0
sg22
I0
sg23
I0
sg24
F0.01321253303133258
ssS'FUGH JOHN L'
p286
(dp287
g3
I0
sg4
I50591
sg5
I0
sg6
I00
sg7
I0
sg8
I0
sg9
I0
sg10
I0
sg11
I0
sg12
I0
sg13
I0
sg14
I0
sg15
I0
sg16
I176378
sg17
I0
sg18
I0
sg19
I0
sg20
I0
sg21
I0
sg22
I50591
sg23
I176378
sg24
I0
ssS'FALLON JAMES B'
p288
(dp289
g3
I1755
sg4
I0
sg5
I95924
sg6
I00
sg7
I0
sg8
I374347
sg9
I0
sg10
I1604
sg11
I0
sg12
I75
sg13
I401481
sg14
I0
sg15
I2500000
sg16
I2332399
sg17
I42
sg18
F0.49333333333333335
sg19
I37
sg20
I1392142
sg21
I304588
sg22
I3676340
sg23
I940257
sg24
F0.023931623931623933
ssS'KOENIG MARK E'
p290
(dp291
g3
I2374
sg4
I0
sg5
I127017
sg6
I01
sg7
I0
sg8
I300000
sg9
I0
sg10
I2271
sg11
I0
sg12
I61
sg13
I150458
sg14
I0
sg15
I700000
sg16
I1920055
sg17
I53
sg18
F0.2459016393442623
sg19
I15
sg20
I1248318
sg21
I309946
sg22
I1587421
sg23
I671737
sg24
F0.02232518955349621
ssS'SAVAGE FRANK'
p292
(dp293
g3
I0
sg4
I0
sg5
I0
sg6
I00
sg7
I-121284
sg8
I0
sg9
I0
sg10
I0
sg11
I0
sg12
I0
sg13
I0
sg14
I125034
sg15
I0
sg16
I0
sg17
I0
sg18
I0
sg19
I0
sg20
I0
sg21
I0
sg22
I3750
sg23
I0
sg24
I0
ssS'IZZO LAWRENCE L'
p294
(dp295
g3
I496
sg4
I0
sg5
I28093
sg6
I00
sg7
I0
sg8
I312500
sg9
I0
sg10
I437
sg11
I0
sg12
I19
sg13
I1553729
sg14
I0
sg15
I0
sg16
I5819980
sg17
I28
sg18
F0.2631578947368421
sg19
I5
sg20
I3654808
sg21
I85274
sg22
I1979596
sg23
I2165172
sg24
F0.056451612903225805
ssS'TILNEY ELIZABETH A'
p296
(dp297
g3
I460
sg4
I0
sg5
I0
sg6
I00
sg7
I-575000
sg8
I275000
sg9
I0
sg10
I379
sg11
I0
sg12
I19
sg13
I152055
sg14
I0
sg15
I300000
sg16
I1168042
sg17
I10
sg18
F0.5789473684210527
sg19
I11
sg20
I576792
sg21
I247338
sg22
I399393
sg23
I591250
sg24
F0.021739130434782608
ssS'MARTIN AMANDA K'
p298
(dp299
g3
I1522
sg4
I85430
sg5
I8211
sg6
I00
sg7
I0
sg8
I5145434
sg9
I0
sg10
I477
sg11
I0
sg12
I230
sg13
I2818454
sg14
I0
sg15
I0
sg16
I2070306
sg17
I8
sg18
F0.0
sg19
I0
sg20
I0
sg21
I349487
sg22
I8407016
sg23
I2070306
sg24
F0.005256241787122208
ssS'BUY RICHARD B'
p300
(dp301
g3
I3523
sg4
I649584
sg5
I0
sg6
I00
sg7
I-694862
sg8
I769862
sg9
I0
sg10
I2333
sg11
I0
sg12
I1053
sg13
I400572
sg14
I0
sg15
I900000
sg16
I3444470
sg17
I156
sg18
F0.06742640075973409
sg19
I71
sg20
I901657
sg21
I330546
sg22
I2355702
sg23
I2542813
sg24
F0.04428044280442804
ssS'GRAMM WENDY L'
p302
(dp303
g3
I0
sg4
I0
sg5
I0
sg6
I00
sg7
I0
sg8
I0
sg9
I0
sg10
I0
sg11
I0
sg12
I0
sg13
I0
sg14
I119292
sg15
I0
sg16
I0
sg17
I0
sg18
I0
sg19
I0
sg20
I0
sg21
I0
sg22
I119292
sg23
I0
sg24
I0
ssS'CAUSEY RICHARD A'
p304
(dp305
g3
I1892
sg4
I0
sg5
I30674
sg6
I01
sg7
I-235000
sg8
I350000
sg9
I0
sg10
I1585
sg11
I0
sg12
I49
sg13
I307895
sg14
I0
sg15
I1000000
sg16
I2502063
sg17
I58
sg18
F0.24489795918367346
sg19
I12
sg20
I2502063
sg21
I415189
sg22
I1868758
sg23
I0
sg24
F0.0306553911205074
ssS'TAYLOR MITCHELL S'
p306
(dp307
g3
I533
sg4
I227449
sg5
I0
sg6
I00
sg7
I0
sg8
I0
sg9
I0
sg10
I300
sg11
I0
sg12
I29
sg13
I0
sg14
I0
sg15
I600000
sg16
I3745048
sg17
I0
sg18
F0.0
sg19
I0
sg20
I563798
sg21
I265214
sg22
I1092663
sg23
I3181250
sg24
F0.0
ssS'DONAHUE JR JEFFREY M'
p308
(dp309
g3
I865
sg4
I0
sg5
I96268
sg6
I00
sg7
I-300000
sg8
I0
sg9
I0
sg10
I772
sg11
I0
sg12
I22
sg13
I891
sg14
I0
sg15
I800000
sg16
I1080988
sg17
I188
sg18
F0.5
sg19
I11
sg20
I315068
sg21
I278601
sg22
I875760
sg23
I765920
sg24
F0.21734104046242775
ssS'GLISAN JR BEN F'
p310
(dp311
g3
I873
sg4
I0
sg5
I125978
sg6
I01
sg7
I0
sg8
I71023
sg9
I0
sg10
I874
sg11
I0
sg12
I16
sg13
I200308
sg14
I0
sg15
I600000
sg16
I778546
sg17
I52
sg18
F0.375
sg19
I6
sg20
I393818
sg21
I274975
sg22
I1272284
sg23
I384728
sg24
F0.05956471935853379
ss.