(lp0
S'poi'
p1
aS'deferral_payments'
p2
aS'exercised_stock_options'
p3
aS'expenses'
p4
aS'loan_advances'
p5
aS'from_messages'
p6
aS'other'
p7
aS'director_fees'
p8
aS'deferred_income'
p9
aS'long_term_incentive'
p10
a.